; Function Attrs: mustprogress uwtable
define noundef zeroext i1 @_ZNK6casadi6Concat14is_valid_inputEv(ptr noundef nonnull align 8 dereferenceable(64) %0) unnamed_addr #3 align 2 {
  %2 = tail call noundef i64 @_ZNK6casadi6MXNode5n_depEv(ptr noundef nonnull align 8 dereferenceable(64) %0)
  %3 = icmp slt i64 %2, 1
  br i1 %3, label %._crit_edge, label %.lr.ph

.lr.ph:                                           ; preds = %1
  %4 = getelementptr inbounds i8, ptr %0, i64 32
  %5 = getelementptr inbounds i8, ptr %0, i64 40
  br label %6

6:                                                ; preds = %.lr.ph, %20
  %.08 = phi i64 [ 0, %.lr.ph ], [ %21, %20 ]
  %7 = load ptr, ptr %5, align 8
  %8 = load ptr, ptr %4, align 8
  %9 = ptrtoint ptr %7 to i64
  %10 = ptrtoint ptr %8 to i64
  %11 = sub i64 %9, %10
  %12 = ashr exact i64 %11, 3
  %.not.i.i.i = icmp ugt i64 %12, %.08
  br i1 %.not.i.i.i, label %_ZNK6casadi6MXNode3depEx.exit, label %13

13:                                               ; preds = %6
  tail call void (ptr, ...) @_ZSt24__throw_out_of_range_fmtPKcz(ptr noundef nonnull @.str.27, i64 noundef %.08, i64 noundef %12) #19
  unreachable

_ZNK6casadi6MXNode3depEx.exit:                    ; preds = %6
  %14 = getelementptr inbounds %"class.casadi::MX", ptr %8, i64 %.08
  %15 = tail call noundef ptr @_ZNK6casadi2MXptEv(ptr noundef nonnull align 8 dereferenceable(8) %14)
  %16 = load ptr, ptr %15, align 8
  %17 = getelementptr inbounds i8, ptr %16, i64 208
  %18 = load ptr, ptr %17, align 8
  %19 = tail call noundef zeroext i1 %18(ptr noundef nonnull align 8 dereferenceable(64) %15)
  br i1 %19, label %20, label %._crit_edge

20:                                               ; preds = %_ZNK6casadi6MXNode3depEx.exit
  %21 = add nuw nsw i64 %.08, 1
  %22 = tail call noundef i64 @_ZNK6casadi6MXNode5n_depEv(ptr noundef nonnull align 8 dereferenceable(64) %0)
  %.not = icmp slt i64 %21, %22
  br i1 %.not, label %6, label %._crit_edge, !llvm.loop !44

._crit_edge:                                      ; preds = %_ZNK6casadi6MXNode3depEx.exit, %20, %1
  %.lcssa5 = phi i1 [ true, %1 ], [ %19, %20 ], [ %19, %_ZNK6casadi6MXNode3depEx.exit ]
  ret i1 %.lcssa5
}